; Function Attrs: mustprogress nofree norecurse nosync nounwind willreturn memory(readwrite, inaccessiblemem: none) uwtable
define hidden void @_ZN9Assembler10emit_arithEii8RegisterS0_(ptr nocapture noundef nonnull readonly align 8 dereferenceable(40) %0, i32 noundef %1, i32 noundef %2, i32 %3, i32 %4) local_unnamed_addr #8 align 2 {
  %6 = sext i32 %3 to i64
  %7 = getelementptr inbounds %"class.Register::RegisterImpl", ptr getelementptr inbounds (i8, ptr @all_RegisterImpls, i64 1), i64 %6
  %8 = ptrtoint ptr %7 to i64
  %9 = trunc i64 %8 to i32
  %10 = sub i32 %9, ptrtoint (ptr getelementptr inbounds (i8, ptr @all_RegisterImpls, i64 1) to i32)
  %11 = shl i32 %10, 3
  %12 = and i32 %11, 56
  %13 = or i32 %12, %2
  %14 = sext i32 %4 to i64
  %15 = getelementptr inbounds %"class.Register::RegisterImpl", ptr getelementptr inbounds (i8, ptr @all_RegisterImpls, i64 1), i64 %14
  %16 = ptrtoint ptr %15 to i64
  %17 = trunc i64 %16 to i32
  %18 = sub i32 %17, ptrtoint (ptr getelementptr inbounds (i8, ptr @all_RegisterImpls, i64 1) to i32)
  %19 = and i32 %18, 7
  %20 = or i32 %13, %19
  %21 = getelementptr inbounds i8, ptr %0, i64 8
  %22 = load ptr, ptr %21, align 8
  %.0.i.i = trunc i32 %1 to i8
  %.0.i2.i = trunc i32 %20 to i8
  %23 = getelementptr inbounds i8, ptr %22, i64 16
  %24 = load ptr, ptr %23, align 8
  %25 = getelementptr inbounds i8, ptr %24, i64 1
  store i8 %.0.i.i, ptr %24, align 1
  %26 = getelementptr inbounds i8, ptr %24, i64 2
  store i8 %.0.i2.i, ptr %25, align 1
  store ptr %26, ptr %23, align 8
  ret void
}